target datalayout = "e-m:e-p270:32:32-p271:32:32-p272:64:64-i64:64-i128:128-f80:128-n8:16:32:64-S128"
target triple = "x86_64-pc-linux-gnu"

; Function Attrs: mustprogress nounwind uwtable
define hidden void @_ZN2cv8ximgproc10intrinsics16rf_vert_row_passEPfS2_fi(ptr noundef %0, ptr noundef %1, float noundef %2, i32 noundef %3) #7 {
  %5 = alloca ptr, align 8
  %6 = alloca ptr, align 8
  %7 = alloca float, align 4
  %8 = alloca i32, align 4
  %9 = alloca i32, align 4
  store ptr %0, ptr %5, align 8, !tbaa !68
  store ptr %1, ptr %6, align 8, !tbaa !68
  store float %2, ptr %7, align 4, !tbaa !70
  store i32 %3, ptr %8, align 4, !tbaa !10
  call void @llvm.lifetime.start.p0(i64 4, ptr %9) #3
  store i32 0, ptr %9, align 4, !tbaa !10
  br label %10

10:                                               ; preds = %33, %4
  %11 = load i32, ptr %9, align 4, !tbaa !10
  %12 = load i32, ptr %8, align 4, !tbaa !10
  %13 = icmp slt i32 %11, %12
  br i1 %13, label %14, label %36

14:                                               ; preds = %10
  %15 = load float, ptr %7, align 4, !tbaa !70
  %16 = load ptr, ptr %6, align 8, !tbaa !68
  %17 = load i32, ptr %9, align 4, !tbaa !10
  %18 = sext i32 %17 to i64
  %19 = getelementptr inbounds float, ptr %16, i64 %18
  %20 = load float, ptr %19, align 4, !tbaa !70
  %21 = load ptr, ptr %5, align 8, !tbaa !68
  %22 = load i32, ptr %9, align 4, !tbaa !10
  %23 = sext i32 %22 to i64
  %24 = getelementptr inbounds float, ptr %21, i64 %23
  %25 = load float, ptr %24, align 4, !tbaa !70
  %26 = fsub float %20, %25
  %27 = load ptr, ptr %5, align 8, !tbaa !68
  %28 = load i32, ptr %9, align 4, !tbaa !10
  %29 = sext i32 %28 to i64
  %30 = getelementptr inbounds float, ptr %27, i64 %29
  %31 = load float, ptr %30, align 4, !tbaa !70
  %32 = call float @llvm.fmuladd.f32(float %15, float %26, float %31)
  store float %32, ptr %30, align 4, !tbaa !70
  br label %33

33:                                               ; preds = %14
  %34 = load i32, ptr %9, align 4, !tbaa !10
  %35 = add nsw i32 %34, 1
  store i32 %35, ptr %9, align 4, !tbaa !10
  br label %10, !llvm.loop !89

36:                                               ; preds = %10
  call void @llvm.lifetime.end.p0(i64 4, ptr %9) #3
  ret void
}